; ModuleID = 'source-C-CXX/46/1004.c'
source_filename = "source-C-CXX/46/1004.c"
target datalayout = "e-m:e-p270:32:32-p271:32:32-p272:64:64-i64:64-f80:128-n8:16:32:64-S128"
target triple = "x86_64-pc-linux-gnu"

@.str = private unnamed_addr constant [3 x i8] c"%d\00", align 1
@.str.1 = private unnamed_addr constant [4 x i8] c"%d \00", align 1

; Function Attrs: nofree nounwind sspstrong uwtable
define dso_local i32 @main() local_unnamed_addr #0 {
  %1 = alloca [10000 x i32], align 16
  %2 = alloca i32, align 4
  %3 = bitcast [10000 x i32]* %1 to i8*
  call void @llvm.lifetime.start.p0i8(i64 40000, i8* nonnull %3) #3
  %4 = bitcast i32* %2 to i8*
  call void @llvm.lifetime.start.p0i8(i64 4, i8* nonnull %4) #3
  %5 = call i32 (i8*, ...) @__isoc99_scanf(i8* getelementptr inbounds ([3 x i8], [3 x i8]* @.str, i64 0, i64 0), i32* nonnull %2)
  %6 = load i32, i32* %2, align 4, !tbaa !5
  %7 = icmp sgt i32 %6, 1
  br i1 %7, label %8, label %16

8:                                                ; preds = %0, %8
  %9 = phi i64 [ %12, %8 ], [ 1, %0 ]
  %10 = getelementptr inbounds [10000 x i32], [10000 x i32]* %1, i64 0, i64 %9
  %11 = call i32 (i8*, ...) @__isoc99_scanf(i8* getelementptr inbounds ([4 x i8], [4 x i8]* @.str.1, i64 0, i64 0), i32* nonnull %10)
  %12 = add nuw nsw i64 %9, 1
  %13 = load i32, i32* %2, align 4, !tbaa !5
  %14 = sext i32 %13 to i64
  %15 = icmp slt i64 %12, %14
  br i1 %15, label %8, label %16, !llvm.loop !9

16:                                               ; preds = %8, %0
  %17 = phi i32 [ %6, %0 ], [ %13, %8 ]
  %18 = sext i32 %17 to i64
  %19 = getelementptr inbounds [10000 x i32], [10000 x i32]* %1, i64 0, i64 %18
  %20 = call i32 (i8*, ...) @__isoc99_scanf(i8* getelementptr inbounds ([3 x i8], [3 x i8]* @.str, i64 0, i64 0), i32* nonnull %19)
  %21 = load i32, i32* %2, align 4, !tbaa !5
  %22 = icmp slt i32 %21, 2
  br i1 %22, label %76, label %23

23:                                               ; preds = %16
  %24 = lshr i32 %21, 1
  %25 = zext i32 %24 to i64
  %26 = and i64 %25, 1
  %27 = icmp eq i32 %24, 1
  br i1 %27, label %30, label %28

28:                                               ; preds = %23
  %29 = and i64 %25, 2147483646
  br label %44

30:                                               ; preds = %44, %23
  %31 = phi i64 [ 1, %23 ], [ %64, %44 ]
  %32 = icmp eq i64 %26, 0
  br i1 %32, label %42, label %33

33:                                               ; preds = %30
  %34 = trunc i64 %31 to i32
  %35 = sub i32 1, %34
  %36 = add i32 %35, %21
  %37 = sext i32 %36 to i64
  %38 = getelementptr inbounds [10000 x i32], [10000 x i32]* %1, i64 0, i64 %37
  %39 = load i32, i32* %38, align 4, !tbaa !5
  %40 = getelementptr inbounds [10000 x i32], [10000 x i32]* %1, i64 0, i64 %31
  %41 = load i32, i32* %40, align 4, !tbaa !5
  store i32 %41, i32* %38, align 4, !tbaa !5
  store i32 %39, i32* %40, align 4, !tbaa !5
  br label %42

42:                                               ; preds = %30, %33
  %43 = icmp sgt i32 %21, 1
  br i1 %43, label %67, label %76

44:                                               ; preds = %44, %28
  %45 = phi i64 [ 1, %28 ], [ %64, %44 ]
  %46 = phi i64 [ %29, %28 ], [ %65, %44 ]
  %47 = trunc i64 %45 to i32
  %48 = sub i32 1, %47
  %49 = add i32 %48, %21
  %50 = sext i32 %49 to i64
  %51 = getelementptr inbounds [10000 x i32], [10000 x i32]* %1, i64 0, i64 %50
  %52 = load i32, i32* %51, align 4, !tbaa !5
  %53 = getelementptr inbounds [10000 x i32], [10000 x i32]* %1, i64 0, i64 %45
  %54 = load i32, i32* %53, align 4, !tbaa !5
  store i32 %54, i32* %51, align 4, !tbaa !5
  store i32 %52, i32* %53, align 4, !tbaa !5
  %55 = add nuw nsw i64 %45, 1
  %56 = trunc i64 %55 to i32
  %57 = sub i32 1, %56
  %58 = add i32 %57, %21
  %59 = sext i32 %58 to i64
  %60 = getelementptr inbounds [10000 x i32], [10000 x i32]* %1, i64 0, i64 %59
  %61 = load i32, i32* %60, align 4, !tbaa !5
  %62 = getelementptr inbounds [10000 x i32], [10000 x i32]* %1, i64 0, i64 %55
  %63 = load i32, i32* %62, align 4, !tbaa !5
  store i32 %63, i32* %60, align 4, !tbaa !5
  store i32 %61, i32* %62, align 4, !tbaa !5
  %64 = add nuw nsw i64 %45, 2
  %65 = add i64 %46, -2
  %66 = icmp eq i64 %65, 0
  br i1 %66, label %30, label %44, !llvm.loop !11

67:                                               ; preds = %42, %67
  %68 = phi i64 [ %72, %67 ], [ 1, %42 ]
  %69 = getelementptr inbounds [10000 x i32], [10000 x i32]* %1, i64 0, i64 %68
  %70 = load i32, i32* %69, align 4, !tbaa !5
  %71 = call i32 (i8*, ...) @printf(i8* nonnull dereferenceable(1) getelementptr inbounds ([4 x i8], [4 x i8]* @.str.1, i64 0, i64 0), i32 %70)
  %72 = add nuw nsw i64 %68, 1
  %73 = load i32, i32* %2, align 4, !tbaa !5
  %74 = sext i32 %73 to i64
  %75 = icmp slt i64 %72, %74
  br i1 %75, label %67, label %76, !llvm.loop !12

76:                                               ; preds = %67, %42, %16
  %77 = phi i32 [ %21, %16 ], [ %21, %42 ], [ %73, %67 ]
  %78 = sext i32 %77 to i64
  %79 = getelementptr inbounds [10000 x i32], [10000 x i32]* %1, i64 0, i64 %78
  %80 = load i32, i32* %79, align 4, !tbaa !5
  %81 = call i32 (i8*, ...) @printf(i8* nonnull dereferenceable(1) getelementptr inbounds ([3 x i8], [3 x i8]* @.str, i64 0, i64 0), i32 %80)
  call void @llvm.lifetime.end.p0i8(i64 4, i8* nonnull %4) #3
  call void @llvm.lifetime.end.p0i8(i64 40000, i8* nonnull %3) #3
  ret i32 0
}

; Function Attrs: argmemonly mustprogress nofree nosync nounwind willreturn
declare void @llvm.lifetime.start.p0i8(i64 immarg, i8* nocapture) #1

; Function Attrs: nofree nounwind
declare noundef i32 @__isoc99_scanf(i8* nocapture noundef readonly, ...) local_unnamed_addr #2

; Function Attrs: nofree nounwind
declare noundef i32 @printf(i8* nocapture noundef readonly, ...) local_unnamed_addr #2

; Function Attrs: argmemonly mustprogress nofree nosync nounwind willreturn
declare void @llvm.lifetime.end.p0i8(i64 immarg, i8* nocapture) #1


!llvm.module.flags = !{!0, !1, !2, !3}
!llvm.ident = !{!4}

!0 = !{i32 1, !"wchar_size", i32 4}
!1 = !{i32 7, !"PIC Level", i32 2}
!2 = !{i32 7, !"PIE Level", i32 2}
!3 = !{i32 7, !"uwtable", i32 1}
!4 = !{!"clang version 13.0.0"}
!5 = !{!6, !6, i64 0}
!6 = !{!"int", !7, i64 0}
!7 = !{!"omnipotent char", !8, i64 0}
!8 = !{!"Simple C/C++ TBAA"}
!9 = distinct !{!9, !10}
!10 = !{!"llvm.loop.mustprogress"}
!11 = distinct !{!11, !10}
!12 = distinct !{!12, !10}
